target datalayout = "e-m:e-p270:32:32-p271:32:32-p272:64:64-i64:64-i128:128-f80:128-n8:16:32:64-S128"
target triple = "x86_64-pc-linux-gnu"

%struct.PJconsts = type <{ ptr, ptr, ptr, ptr, ptr, ptr, ptr, ptr, ptr, ptr, ptr, ptr, i32, [4 x i8], ptr, ptr, ptr, ptr, ptr, ptr, ptr, ptr, double, double, double, double, double, double, double, double, double, double, double, double, double, double, double, double, double, double, double, double, double, double, i32, i32, i32, i32, i32, i32, i32, i32, i32, i32, i32, [4 x i8], ptr, ptr, ptr, ptr, ptr, ptr, double, double, double, double, double, double, double, double, double, double, double, i32, [4 x i8], [7 x double], i32, [4 x i8], ptr, ptr, double, double, i32, [4 x i8], %"class.std::shared_ptr", i8, [7 x i8], double, i8, [7 x i8], %"class.std::__cxx11::basic_string", %"class.std::__cxx11::basic_string", %"class.std::__cxx11::basic_string", i8, [7 x i8], %"class.std::vector", i32, [4 x i8], %"class.std::vector.3", i32, i8, i8, i8, i8 }>
%"class.std::shared_ptr" = type { %"class.std::__shared_ptr" }
%"class.std::__shared_ptr" = type { ptr, %"class.std::__shared_count" }
%"class.std::__shared_count" = type { ptr }
%"class.std::__cxx11::basic_string" = type { %"struct.std::__cxx11::basic_string<char>::_Alloc_hider", i64, %union.anon }
%"struct.std::__cxx11::basic_string<char>::_Alloc_hider" = type { ptr }
%union.anon = type { i64, [8 x i8] }
%"class.std::vector" = type { %"struct.std::_Vector_base" }
%"struct.std::_Vector_base" = type { %"struct.std::_Vector_base<osgeo::proj::operation::GridDescription, std::allocator<osgeo::proj::operation::GridDescription>>::_Vector_impl" }
%"struct.std::_Vector_base<osgeo::proj::operation::GridDescription, std::allocator<osgeo::proj::operation::GridDescription>>::_Vector_impl" = type { %"struct.std::_Vector_base<osgeo::proj::operation::GridDescription, std::allocator<osgeo::proj::operation::GridDescription>>::_Vector_impl_data" }
%"struct.std::_Vector_base<osgeo::proj::operation::GridDescription, std::allocator<osgeo::proj::operation::GridDescription>>::_Vector_impl_data" = type { ptr, ptr, ptr }
%"class.std::vector.3" = type { %"struct.std::_Vector_base.4" }
%"struct.std::_Vector_base.4" = type { %"struct.std::_Vector_base<PJCoordOperation, std::allocator<PJCoordOperation>>::_Vector_impl" }
%"struct.std::_Vector_base<PJCoordOperation, std::allocator<PJCoordOperation>>::_Vector_impl" = type { %"struct.std::_Vector_base<PJCoordOperation, std::allocator<PJCoordOperation>>::_Vector_impl_data" }
%"struct.std::_Vector_base<PJCoordOperation, std::allocator<PJCoordOperation>>::_Vector_impl_data" = type { ptr, ptr, ptr }
%"struct.(anonymous namespace)::pj_opaque" = type { double, double, double, double, ptr }
%struct.PJ_LP = type { double, double }
%struct.PJ_XY = type { double, double }

; Function Attrs: mustprogress uwtable
define internal { double, double } @_ZL16sterea_e_inverse5PJ_XYP8PJconsts(double %0, double %1, ptr noundef %2) #0 {
  %4 = alloca %struct.PJ_LP, align 8
  %5 = alloca %struct.PJ_XY, align 8
  %6 = alloca ptr, align 8
  %7 = alloca %struct.PJ_LP, align 8
  %8 = alloca ptr, align 8
  %9 = alloca double, align 8
  %10 = alloca double, align 8
  %11 = alloca double, align 8
  %12 = alloca double, align 8
  %13 = alloca %struct.PJ_LP, align 8
  %14 = getelementptr inbounds { double, double }, ptr %5, i32 0, i32 0
  store double %0, ptr %14, align 8
  %15 = getelementptr inbounds { double, double }, ptr %5, i32 0, i32 1
  store double %1, ptr %15, align 8
  store ptr %2, ptr %6, align 8
  call void @llvm.memset.p0.i64(ptr align 8 %7, i8 0, i64 16, i1 false)
  %16 = load ptr, ptr %6, align 8
  %17 = getelementptr inbounds %struct.PJconsts, ptr %16, i32 0, i32 11
  %18 = load ptr, ptr %17, align 8
  store ptr %18, ptr %8, align 8
  %19 = load ptr, ptr %6, align 8
  %20 = getelementptr inbounds %struct.PJconsts, ptr %19, i32 0, i32 68
  %21 = load double, ptr %20, align 8
  %22 = getelementptr inbounds %struct.PJ_XY, ptr %5, i32 0, i32 0
  %23 = load double, ptr %22, align 8
  %24 = fdiv double %23, %21
  store double %24, ptr %22, align 8
  %25 = load ptr, ptr %6, align 8
  %26 = getelementptr inbounds %struct.PJconsts, ptr %25, i32 0, i32 68
  %27 = load double, ptr %26, align 8
  %28 = getelementptr inbounds %struct.PJ_XY, ptr %5, i32 0, i32 1
  %29 = load double, ptr %28, align 8
  %30 = fdiv double %29, %27
  store double %30, ptr %28, align 8
  %31 = getelementptr inbounds %struct.PJ_XY, ptr %5, i32 0, i32 0
  %32 = load double, ptr %31, align 8
  %33 = getelementptr inbounds %struct.PJ_XY, ptr %5, i32 0, i32 1
  %34 = load double, ptr %33, align 8
  %35 = call double @hypot(double noundef %32, double noundef %34) #8
  store double %35, ptr %9, align 8
  %36 = fcmp une double %35, 0.000000e+00
  br i1 %36, label %37, label %87

37:                                               ; preds = %3
  %38 = load double, ptr %9, align 8
  %39 = load ptr, ptr %8, align 8
  %40 = getelementptr inbounds %"struct.(anonymous namespace)::pj_opaque", ptr %39, i32 0, i32 3
  %41 = load double, ptr %40, align 8
  %42 = call double @atan2(double noundef %38, double noundef %41) #8
  %43 = fmul double 2.000000e+00, %42
  store double %43, ptr %10, align 8
  %44 = load double, ptr %10, align 8
  %45 = call double @sin(double noundef %44) #8
  store double %45, ptr %11, align 8
  %46 = load double, ptr %10, align 8
  %47 = call double @cos(double noundef %46) #8
  store double %47, ptr %12, align 8
  %48 = load double, ptr %12, align 8
  %49 = load ptr, ptr %8, align 8
  %50 = getelementptr inbounds %"struct.(anonymous namespace)::pj_opaque", ptr %49, i32 0, i32 2
  %51 = load double, ptr %50, align 8
  %52 = getelementptr inbounds %struct.PJ_XY, ptr %5, i32 0, i32 1
  %53 = load double, ptr %52, align 8
  %54 = load double, ptr %11, align 8
  %55 = fmul double %53, %54
  %56 = load ptr, ptr %8, align 8
  %57 = getelementptr inbounds %"struct.(anonymous namespace)::pj_opaque", ptr %56, i32 0, i32 1
  %58 = load double, ptr %57, align 8
  %59 = fmul double %55, %58
  %60 = load double, ptr %9, align 8
  %61 = fdiv double %59, %60
  %62 = call double @llvm.fmuladd.f64(double %48, double %51, double %61)
  %63 = call double @asin(double noundef %62) #8
  %64 = getelementptr inbounds %struct.PJ_LP, ptr %7, i32 0, i32 1
  store double %63, ptr %64, align 8
  %65 = getelementptr inbounds %struct.PJ_XY, ptr %5, i32 0, i32 0
  %66 = load double, ptr %65, align 8
  %67 = load double, ptr %11, align 8
  %68 = fmul double %66, %67
  %69 = load double, ptr %9, align 8
  %70 = load ptr, ptr %8, align 8
  %71 = getelementptr inbounds %"struct.(anonymous namespace)::pj_opaque", ptr %70, i32 0, i32 1
  %72 = load double, ptr %71, align 8
  %73 = fmul double %69, %72
  %74 = load double, ptr %12, align 8
  %75 = getelementptr inbounds %struct.PJ_XY, ptr %5, i32 0, i32 1
  %76 = load double, ptr %75, align 8
  %77 = load ptr, ptr %8, align 8
  %78 = getelementptr inbounds %"struct.(anonymous namespace)::pj_opaque", ptr %77, i32 0, i32 2
  %79 = load double, ptr %78, align 8
  %80 = fmul double %76, %79
  %81 = load double, ptr %11, align 8
  %82 = fmul double %80, %81
  %83 = fneg double %82
  %84 = call double @llvm.fmuladd.f64(double %73, double %74, double %83)
  %85 = call double @atan2(double noundef %68, double noundef %84) #8
  %86 = getelementptr inbounds %struct.PJ_LP, ptr %7, i32 0, i32 0
  store double %85, ptr %86, align 8
  br label %93

87:                                               ; preds = %3
  %88 = load ptr, ptr %8, align 8
  %89 = getelementptr inbounds %"struct.(anonymous namespace)::pj_opaque", ptr %88, i32 0, i32 0
  %90 = load double, ptr %89, align 8
  %91 = getelementptr inbounds %struct.PJ_LP, ptr %7, i32 0, i32 1
  store double %90, ptr %91, align 8
  %92 = getelementptr inbounds %struct.PJ_LP, ptr %7, i32 0, i32 0
  store double 0.000000e+00, ptr %92, align 8
  br label %93

93:                                               ; preds = %87, %37
  %94 = load ptr, ptr %6, align 8
  %95 = getelementptr inbounds %struct.PJconsts, ptr %94, i32 0, i32 0
  %96 = load ptr, ptr %95, align 8
  call void @llvm.memcpy.p0.p0.i64(ptr align 8 %13, ptr align 8 %7, i64 16, i1 false)
  %97 = load ptr, ptr %8, align 8
  %98 = getelementptr inbounds %"struct.(anonymous namespace)::pj_opaque", ptr %97, i32 0, i32 4
  %99 = load ptr, ptr %98, align 8
  %100 = getelementptr inbounds { double, double }, ptr %13, i32 0, i32 0
  %101 = load double, ptr %100, align 8
  %102 = getelementptr inbounds { double, double }, ptr %13, i32 0, i32 1
  %103 = load double, ptr %102, align 8
  %104 = call { double, double } @_Z12pj_inv_gaussP6pj_ctx5PJ_LPPKv(ptr noundef %96, double %101, double %103, ptr noundef %99)
  %105 = getelementptr inbounds { double, double }, ptr %4, i32 0, i32 0
  %106 = extractvalue { double, double } %104, 0
  store double %106, ptr %105, align 8
  %107 = getelementptr inbounds { double, double }, ptr %4, i32 0, i32 1
  %108 = extractvalue { double, double } %104, 1
  store double %108, ptr %107, align 8
  %109 = load { double, double }, ptr %4, align 8
  ret { double, double } %109
}