; Function Attrs: mustprogress uwtable
define internal { double, double } @_ZL16sterea_e_inverse5PJ_XYP8PJconsts(double %0, double %1, ptr nocapture noundef readonly %2) #0 {
  %4 = getelementptr inbounds i8, ptr %2, i64 88
  %5 = load ptr, ptr %4, align 8
  %6 = getelementptr inbounds i8, ptr %2, i64 488
  %7 = load double, ptr %6, align 8
  %8 = fdiv double %0, %7
  %9 = fdiv double %1, %7
  %10 = tail call double @hypot(double noundef %8, double noundef %9) #9
  %11 = fcmp une double %10, 0.000000e+00
  br i1 %11, label %12, label %37

12:                                               ; preds = %3
  %13 = getelementptr inbounds i8, ptr %5, i64 24
  %14 = load double, ptr %13, align 8
  %15 = tail call double @atan2(double noundef %10, double noundef %14) #9
  %16 = fmul double %15, 2.000000e+00
  %17 = tail call double @sin(double noundef %16) #9
  %18 = tail call double @cos(double noundef %16) #9
  %19 = getelementptr inbounds i8, ptr %5, i64 16
  %20 = load double, ptr %19, align 8
  %21 = fmul double %9, %17
  %22 = getelementptr inbounds i8, ptr %5, i64 8
  %23 = load double, ptr %22, align 8
  %24 = fmul double %21, %23
  %25 = fdiv double %24, %10
  %26 = tail call double @llvm.fmuladd.f64(double %18, double %20, double %25)
  %27 = tail call double @asin(double noundef %26) #9
  %28 = fmul double %8, %17
  %29 = load double, ptr %22, align 8
  %30 = fmul double %10, %29
  %31 = load double, ptr %19, align 8
  %32 = fneg double %9
  %33 = fmul double %31, %32
  %34 = fmul double %17, %33
  %35 = tail call double @llvm.fmuladd.f64(double %30, double %18, double %34)
  %36 = tail call double @atan2(double noundef %28, double noundef %35) #9
  br label %39

37:                                               ; preds = %3
  %38 = load double, ptr %5, align 8
  br label %39

39:                                               ; preds = %37, %12
  %.sroa.4.0 = phi double [ %27, %12 ], [ %38, %37 ]
  %.sroa.017.0 = phi double [ %36, %12 ], [ 0.000000e+00, %37 ]
  %40 = load ptr, ptr %2, align 8
  %41 = getelementptr inbounds i8, ptr %5, i64 32
  %42 = load ptr, ptr %41, align 8
  %43 = tail call { double, double } @_Z12pj_inv_gaussP6pj_ctx5PJ_LPPKv(ptr noundef %40, double %.sroa.017.0, double %.sroa.4.0, ptr noundef %42)
  ret { double, double } %43
}